target datalayout = "e-m:e-p270:32:32-p271:32:32-p272:64:64-i64:64-i128:128-f80:128-n8:16:32:64-S128"
target triple = "x86_64-pc-linux-gnu"

; Function Attrs: mustprogress uwtable
define internal void @_ZN12_GLOBAL__N_121FinalizeFeatureFormatERNSt7__cxx1112basic_stringIcSt11char_traitsIcESaIcEEERKS5_S8_(ptr noundef nonnull align 8 dereferenceable(32) %0, ptr noundef nonnull align 8 dereferenceable(32) %1, ptr noundef nonnull align 8 dereferenceable(32) %2) #4 {
  %4 = alloca ptr, align 8
  %5 = alloca ptr, align 8
  %6 = alloca ptr, align 8
  %7 = alloca i64, align 8
  store ptr %0, ptr %4, align 8
  store ptr %1, ptr %5, align 8
  store ptr %2, ptr %6, align 8
  %8 = load ptr, ptr %4, align 8
  %9 = load ptr, ptr %6, align 8
  %10 = call noundef i64 @_ZNKSt7__cxx1112basic_stringIcSt11char_traitsIcESaIcEE4findERKS4_m(ptr noundef nonnull align 8 dereferenceable(32) %8, ptr noundef nonnull align 8 dereferenceable(32) %9, i64 noundef 0) #3
  store i64 %10, ptr %7, align 8
  %11 = load i64, ptr %7, align 8
  %12 = icmp ne i64 %11, -1
  br i1 %12, label %13, label %23

13:                                               ; preds = %3
  %14 = load ptr, ptr %4, align 8
  %15 = load i64, ptr %7, align 8
  %16 = load ptr, ptr %4, align 8
  %17 = load i64, ptr %7, align 8
  %18 = call noundef i64 @_ZNKSt7__cxx1112basic_stringIcSt11char_traitsIcESaIcEE4findEcm(ptr noundef nonnull align 8 dereferenceable(32) %16, i8 noundef signext 125, i64 noundef %17) #3
  %19 = load i64, ptr %7, align 8
  %20 = sub i64 %18, %19
  %21 = add i64 %20, 1
  %22 = call noundef nonnull align 8 dereferenceable(32) ptr @_ZNSt7__cxx1112basic_stringIcSt11char_traitsIcESaIcEE5eraseEmm(ptr noundef nonnull align 8 dereferenceable(32) %14, i64 noundef %15, i64 noundef %21)
  br label %23

23:                                               ; preds = %13, %3
  %24 = load ptr, ptr %4, align 8
  %25 = load ptr, ptr %5, align 8
  %26 = call noundef i64 @_ZNKSt7__cxx1112basic_stringIcSt11char_traitsIcESaIcEE4findERKS4_m(ptr noundef nonnull align 8 dereferenceable(32) %24, ptr noundef nonnull align 8 dereferenceable(32) %25, i64 noundef 0) #3
  store i64 %26, ptr %7, align 8
  %27 = load i64, ptr %7, align 8
  %28 = icmp ne i64 %27, -1
  br i1 %28, label %29, label %45

29:                                               ; preds = %23
  %30 = load ptr, ptr %4, align 8
  %31 = load i64, ptr %7, align 8
  %32 = load ptr, ptr %5, align 8
  %33 = call noundef i64 @_ZNKSt7__cxx1112basic_stringIcSt11char_traitsIcESaIcEE6lengthEv(ptr noundef nonnull align 8 dereferenceable(32) %32) #3
  %34 = call noundef nonnull align 8 dereferenceable(32) ptr @_ZNSt7__cxx1112basic_stringIcSt11char_traitsIcESaIcEE5eraseEmm(ptr noundef nonnull align 8 dereferenceable(32) %30, i64 noundef %31, i64 noundef %33)
  %35 = load ptr, ptr %4, align 8
  %36 = load i64, ptr %7, align 8
  %37 = call noundef i64 @_ZNKSt7__cxx1112basic_stringIcSt11char_traitsIcESaIcEE4findEcm(ptr noundef nonnull align 8 dereferenceable(32) %35, i8 noundef signext 125, i64 noundef %36) #3
  store i64 %37, ptr %7, align 8
  %38 = load i64, ptr %7, align 8
  %39 = icmp ne i64 %38, -1
  br i1 %39, label %40, label %44

40:                                               ; preds = %29
  %41 = load ptr, ptr %4, align 8
  %42 = load i64, ptr %7, align 8
  %43 = call noundef nonnull align 8 dereferenceable(32) ptr @_ZNSt7__cxx1112basic_stringIcSt11char_traitsIcESaIcEE5eraseEmm(ptr noundef nonnull align 8 dereferenceable(32) %41, i64 noundef %42, i64 noundef 1)
  br label %44

44:                                               ; preds = %40, %29
  br label %45

45:                                               ; preds = %44, %23
  ret void
}