; Function Attrs: mustprogress uwtable
define internal fastcc void @_ZN12_GLOBAL__N_121FinalizeFeatureFormatERNSt7__cxx1112basic_stringIcSt11char_traitsIcESaIcEEERKS5_S8_(ptr noundef nonnull align 8 dereferenceable(32) %0, ptr noundef nonnull align 8 dereferenceable(32) %1, ptr noundef nonnull align 8 dereferenceable(32) %2) unnamed_addr #3 {
  %4 = tail call noundef i64 @_ZNKSt7__cxx1112basic_stringIcSt11char_traitsIcESaIcEE4findERKS4_m(ptr noundef nonnull align 8 dereferenceable(32) %0, ptr noundef nonnull align 8 dereferenceable(32) %2, i64 noundef 0) #19
  %.not = icmp eq i64 %4, -1
  br i1 %.not, label %9, label %5

5:                                                ; preds = %3
  %6 = tail call noundef i64 @_ZNKSt7__cxx1112basic_stringIcSt11char_traitsIcESaIcEE4findEcm(ptr noundef nonnull align 8 dereferenceable(32) %0, i8 noundef signext 125, i64 noundef %4) #19
  %reass.sub = sub i64 %6, %4
  %7 = add i64 %reass.sub, 1
  %8 = tail call noundef nonnull align 8 dereferenceable(32) ptr @_ZNSt7__cxx1112basic_stringIcSt11char_traitsIcESaIcEE5eraseEmm(ptr noundef nonnull align 8 dereferenceable(32) %0, i64 noundef %4, i64 noundef %7)
  br label %9

9:                                                ; preds = %5, %3
  %10 = tail call noundef i64 @_ZNKSt7__cxx1112basic_stringIcSt11char_traitsIcESaIcEE4findERKS4_m(ptr noundef nonnull align 8 dereferenceable(32) %0, ptr noundef nonnull align 8 dereferenceable(32) %1, i64 noundef 0) #19
  %.not20 = icmp eq i64 %10, -1
  br i1 %.not20, label %17, label %11

11:                                               ; preds = %9
  %12 = tail call noundef i64 @_ZNKSt7__cxx1112basic_stringIcSt11char_traitsIcESaIcEE6lengthEv(ptr noundef nonnull align 8 dereferenceable(32) %1) #19
  %13 = tail call noundef nonnull align 8 dereferenceable(32) ptr @_ZNSt7__cxx1112basic_stringIcSt11char_traitsIcESaIcEE5eraseEmm(ptr noundef nonnull align 8 dereferenceable(32) %0, i64 noundef %10, i64 noundef %12)
  %14 = tail call noundef i64 @_ZNKSt7__cxx1112basic_stringIcSt11char_traitsIcESaIcEE4findEcm(ptr noundef nonnull align 8 dereferenceable(32) %0, i8 noundef signext 125, i64 noundef %10) #19
  %.not21 = icmp eq i64 %14, -1
  br i1 %.not21, label %17, label %15

15:                                               ; preds = %11
  %16 = tail call noundef nonnull align 8 dereferenceable(32) ptr @_ZNSt7__cxx1112basic_stringIcSt11char_traitsIcESaIcEE5eraseEmm(ptr noundef nonnull align 8 dereferenceable(32) %0, i64 noundef %14, i64 noundef 1)
  br label %17

17:                                               ; preds = %11, %15, %9
  ret void
}